target datalayout = "e-m:e-p270:32:32-p271:32:32-p272:64:64-i64:64-i128:128-f80:128-n8:16:32:64-S128"
target triple = "x86_64-pc-linux-gnu"

%struct.Vec_Int_t_ = type { i32, i32, ptr }

; Function Attrs: nounwind uwtable
define internal void @Vec_IntGrow(ptr noundef %0, i32 noundef %1) #0 {
  %3 = alloca ptr, align 8
  %4 = alloca i32, align 4
  store ptr %0, ptr %3, align 8
  store i32 %1, ptr %4, align 4
  %5 = load ptr, ptr %3, align 8
  %6 = getelementptr inbounds %struct.Vec_Int_t_, ptr %5, i32 0, i32 0
  %7 = load i32, ptr %6, align 8
  %8 = load i32, ptr %4, align 4
  %9 = icmp sge i32 %7, %8
  br i1 %9, label %10, label %11

10:                                               ; preds = %2
  br label %36

11:                                               ; preds = %2
  %12 = load ptr, ptr %3, align 8
  %13 = getelementptr inbounds %struct.Vec_Int_t_, ptr %12, i32 0, i32 2
  %14 = load ptr, ptr %13, align 8
  %15 = icmp ne ptr %14, null
  br i1 %15, label %16, label %24

16:                                               ; preds = %11
  %17 = load ptr, ptr %3, align 8
  %18 = getelementptr inbounds %struct.Vec_Int_t_, ptr %17, i32 0, i32 2
  %19 = load ptr, ptr %18, align 8
  %20 = load i32, ptr %4, align 4
  %21 = sext i32 %20 to i64
  %22 = mul i64 4, %21
  %23 = call ptr @realloc(ptr noundef %19, i64 noundef %22) #12
  br label %29

24:                                               ; preds = %11
  %25 = load i32, ptr %4, align 4
  %26 = sext i32 %25 to i64
  %27 = mul i64 4, %26
  %28 = call noalias ptr @malloc(i64 noundef %27) #10
  br label %29

29:                                               ; preds = %24, %16
  %30 = phi ptr [ %23, %16 ], [ %28, %24 ]
  %31 = load ptr, ptr %3, align 8
  %32 = getelementptr inbounds %struct.Vec_Int_t_, ptr %31, i32 0, i32 2
  store ptr %30, ptr %32, align 8
  %33 = load i32, ptr %4, align 4
  %34 = load ptr, ptr %3, align 8
  %35 = getelementptr inbounds %struct.Vec_Int_t_, ptr %34, i32 0, i32 0
  store i32 %33, ptr %35, align 8
  br label %36

36:                                               ; preds = %29, %10
  ret void
}

; Function Attrs: nounwind uwtable
define internal void @Vec_IntFree(ptr noundef %0) #0 {
  %2 = alloca ptr, align 8
  store ptr %0, ptr %2, align 8
  %3 = load ptr, ptr %2, align 8
  %4 = getelementptr inbounds %struct.Vec_Int_t_, ptr %3, i32 0, i32 2
  %5 = load ptr, ptr %4, align 8
  %6 = icmp ne ptr %5, null
  br i1 %6, label %7, label %13

7:                                                ; preds = %1
  %8 = load ptr, ptr %2, align 8
  %9 = getelementptr inbounds %struct.Vec_Int_t_, ptr %8, i32 0, i32 2
  %10 = load ptr, ptr %9, align 8
  call void @free(ptr noundef %10) #11
  %11 = load ptr, ptr %2, align 8
  %12 = getelementptr inbounds %struct.Vec_Int_t_, ptr %11, i32 0, i32 2
  store ptr null, ptr %12, align 8
  br label %14

13:                                               ; preds = %1
  br label %14

14:                                               ; preds = %13, %7
  %15 = load ptr, ptr %2, align 8
  %16 = icmp ne ptr %15, null
  br i1 %16, label %17, label %19

17:                                               ; preds = %14
  %18 = load ptr, ptr %2, align 8
  call void @free(ptr noundef %18) #11
  store ptr null, ptr %2, align 8
  br label %20

19:                                               ; preds = %14
  br label %20

20:                                               ; preds = %19, %17
  ret void
}

; Function Attrs: nounwind uwtable
define internal void @Vec_IntWriteEntry(ptr noundef %0, i32 noundef %1, i32 noundef %2) #0 {
  %4 = alloca ptr, align 8
  %5 = alloca i32, align 4
  %6 = alloca i32, align 4
  store ptr %0, ptr %4, align 8
  store i32 %1, ptr %5, align 4
  store i32 %2, ptr %6, align 4
  %7 = load i32, ptr %6, align 4
  %8 = load ptr, ptr %4, align 8
  %9 = getelementptr inbounds %struct.Vec_Int_t_, ptr %8, i32 0, i32 2
  %10 = load ptr, ptr %9, align 8
  %11 = load i32, ptr %5, align 4
  %12 = sext i32 %11 to i64
  %13 = getelementptr inbounds i32, ptr %10, i64 %12
  store i32 %7, ptr %13, align 4
  ret void
}

; Function Attrs: nounwind uwtable
define internal void @Vec_IntFill(ptr noundef %0, i32 noundef %1, i32 noundef %2) #0 {
  %4 = alloca ptr, align 8
  %5 = alloca i32, align 4
  %6 = alloca i32, align 4
  %7 = alloca i32, align 4
  store ptr %0, ptr %4, align 8
  store i32 %1, ptr %5, align 4
  store i32 %2, ptr %6, align 4
  %8 = load ptr, ptr %4, align 8
  %9 = load i32, ptr %5, align 4
  call void @Vec_IntGrow(ptr noundef %8, i32 noundef %9)
  store i32 0, ptr %7, align 4
  br label %10

10:                                               ; preds = %22, %3
  %11 = load i32, ptr %7, align 4
  %12 = load i32, ptr %5, align 4
  %13 = icmp slt i32 %11, %12
  br i1 %13, label %14, label %25

14:                                               ; preds = %10
  %15 = load i32, ptr %6, align 4
  %16 = load ptr, ptr %4, align 8
  %17 = getelementptr inbounds %struct.Vec_Int_t_, ptr %16, i32 0, i32 2
  %18 = load ptr, ptr %17, align 8
  %19 = load i32, ptr %7, align 4
  %20 = sext i32 %19 to i64
  %21 = getelementptr inbounds i32, ptr %18, i64 %20
  store i32 %15, ptr %21, align 4
  br label %22

22:                                               ; preds = %14
  %23 = load i32, ptr %7, align 4
  %24 = add nsw i32 %23, 1
  store i32 %24, ptr %7, align 4
  br label %10, !llvm.loop !14

25:                                               ; preds = %10
  %26 = load i32, ptr %5, align 4
  %27 = load ptr, ptr %4, align 8
  %28 = getelementptr inbounds %struct.Vec_Int_t_, ptr %27, i32 0, i32 1
  store i32 %26, ptr %28, align 4
  ret void
}

; Function Attrs: nounwind uwtable
define internal ptr @Vec_IntArray(ptr noundef %0) #0 {
  %2 = alloca ptr, align 8
  store ptr %0, ptr %2, align 8
  %3 = load ptr, ptr %2, align 8
  %4 = getelementptr inbounds %struct.Vec_Int_t_, ptr %3, i32 0, i32 2
  %5 = load ptr, ptr %4, align 8
  ret ptr %5
}

; Function Attrs: nounwind uwtable
define internal ptr @Vec_IntAlloc(i32 noundef %0) #0 {
  %2 = alloca i32, align 4
  %3 = alloca ptr, align 8
  store i32 %0, ptr %2, align 4
  %4 = call noalias ptr @malloc(i64 noundef 16) #10
  store ptr %4, ptr %3, align 8
  %5 = load i32, ptr %2, align 4
  %6 = icmp sgt i32 %5, 0
  br i1 %6, label %7, label %11

7:                                                ; preds = %1
  %8 = load i32, ptr %2, align 4
  %9 = icmp slt i32 %8, 16
  br i1 %9, label %10, label %11

10:                                               ; preds = %7
  store i32 16, ptr %2, align 4
  br label %11

11:                                               ; preds = %10, %7, %1
  %12 = load ptr, ptr %3, align 8
  %13 = getelementptr inbounds %struct.Vec_Int_t_, ptr %12, i32 0, i32 1
  store i32 0, ptr %13, align 4
  %14 = load i32, ptr %2, align 4
  %15 = load ptr, ptr %3, align 8
  %16 = getelementptr inbounds %struct.Vec_Int_t_, ptr %15, i32 0, i32 0
  store i32 %14, ptr %16, align 8
  %17 = load ptr, ptr %3, align 8
  %18 = getelementptr inbounds %struct.Vec_Int_t_, ptr %17, i32 0, i32 0
  %19 = load i32, ptr %18, align 8
  %20 = icmp ne i32 %19, 0
  br i1 %20, label %21, label %28

21:                                               ; preds = %11
  %22 = load ptr, ptr %3, align 8
  %23 = getelementptr inbounds %struct.Vec_Int_t_, ptr %22, i32 0, i32 0
  %24 = load i32, ptr %23, align 8
  %25 = sext i32 %24 to i64
  %26 = mul i64 4, %25
  %27 = call noalias ptr @malloc(i64 noundef %26) #10
  br label %29

28:                                               ; preds = %11
  br label %29

29:                                               ; preds = %28, %21
  %30 = phi ptr [ %27, %21 ], [ null, %28 ]
  %31 = load ptr, ptr %3, align 8
  %32 = getelementptr inbounds %struct.Vec_Int_t_, ptr %31, i32 0, i32 2
  store ptr %30, ptr %32, align 8
  %33 = load ptr, ptr %3, align 8
  ret ptr %33
}

; Function Attrs: nounwind uwtable
define void @Cba_BlastPower(ptr noundef %0, ptr noundef %1, i32 noundef %2, ptr noundef %3, i32 noundef %4, ptr noundef %5, ptr noundef %6) #0 {
  %8 = alloca ptr, align 8
  %9 = alloca ptr, align 8
  %10 = alloca i32, align 4
  %11 = alloca ptr, align 8
  %12 = alloca i32, align 4
  %13 = alloca ptr, align 8
  %14 = alloca ptr, align 8
  %15 = alloca ptr, align 8
  %16 = alloca ptr, align 8
  %17 = alloca i32, align 4
  %18 = alloca ptr, align 8
  %19 = alloca ptr, align 8
  %20 = alloca i32, align 4
  %21 = alloca ptr, align 8
  store ptr %0, ptr %8, align 8
  store ptr %1, ptr %9, align 8
  store i32 %2, ptr %10, align 4
  store ptr %3, ptr %11, align 8
  store i32 %4, ptr %12, align 4
  store ptr %5, ptr %13, align 8
  store ptr %6, ptr %14, align 8
  %22 = load i32, ptr %10, align 4
  %23 = mul nsw i32 2, %22
  %24 = call ptr @Vec_IntAlloc(i32 noundef %23)
  store ptr %24, ptr %15, align 8
  %25 = load i32, ptr %10, align 4
  %26 = mul nsw i32 2, %25
  %27 = call ptr @Vec_IntAlloc(i32 noundef %26)
  store ptr %27, ptr %16, align 8
  store ptr null, ptr %18, align 8
  %28 = load ptr, ptr %14, align 8
  %29 = call ptr @Vec_IntArray(ptr noundef %28)
  store ptr %29, ptr %19, align 8
  %30 = load ptr, ptr %16, align 8
  %31 = call ptr @Vec_IntArray(ptr noundef %30)
  store ptr %31, ptr %21, align 8
  %32 = load ptr, ptr %14, align 8
  %33 = load i32, ptr %10, align 4
  call void @Vec_IntFill(ptr noundef %32, i32 noundef %33, i32 noundef 0)
  %34 = load ptr, ptr %14, align 8
  call void @Vec_IntWriteEntry(ptr noundef %34, i32 noundef 0, i32 noundef 1)
  store i32 0, ptr %17, align 4
  br label %35

35:                                               ; preds = %95, %7
  %36 = load i32, ptr %17, align 4
  %37 = load i32, ptr %12, align 4
  %38 = icmp slt i32 %36, %37
  br i1 %38, label %39, label %98

39:                                               ; preds = %35
  %40 = load i32, ptr %17, align 4
  %41 = icmp eq i32 %40, 0
  br i1 %41, label %42, label %47

42:                                               ; preds = %39
  %43 = load ptr, ptr %15, align 8
  %44 = load ptr, ptr %9, align 8
  %45 = load i32, ptr %10, align 4
  %46 = call ptr @Cba_VecCopy(ptr noundef %43, ptr noundef %44, i32 noundef %45)
  store ptr %46, ptr %18, align 8
  br label %58

47:                                               ; preds = %39
  %48 = load ptr, ptr %8, align 8
  %49 = load ptr, ptr %18, align 8
  %50 = load ptr, ptr %18, align 8
  %51 = load i32, ptr %10, align 4
  %52 = load ptr, ptr %13, align 8
  %53 = load ptr, ptr %16, align 8
  call void @Cba_BlastMultiplier2(ptr noundef %48, ptr noundef %49, ptr noundef %50, i32 noundef %51, ptr noundef %52, ptr noundef %53)
  %54 = load ptr, ptr %15, align 8
  %55 = load ptr, ptr %21, align 8
  %56 = load i32, ptr %10, align 4
  %57 = call ptr @Cba_VecCopy(ptr noundef %54, ptr noundef %55, i32 noundef %56)
  store ptr %57, ptr %18, align 8
  br label %58

58:                                               ; preds = %47, %42
  %59 = load ptr, ptr %8, align 8
  %60 = load ptr, ptr %19, align 8
  %61 = load ptr, ptr %18, align 8
  %62 = load i32, ptr %10, align 4
  %63 = load ptr, ptr %13, align 8
  %64 = load ptr, ptr %16, align 8
  call void @Cba_BlastMultiplier2(ptr noundef %59, ptr noundef %60, ptr noundef %61, i32 noundef %62, ptr noundef %63, ptr noundef %64)
  store i32 0, ptr %20, align 4
  br label %65

65:                                               ; preds = %91, %58
  %66 = load i32, ptr %20, align 4
  %67 = load i32, ptr %10, align 4
  %68 = icmp slt i32 %66, %67
  br i1 %68, label %69, label %94

69:                                               ; preds = %65
  %70 = load ptr, ptr %8, align 8
  %71 = load ptr, ptr %11, align 8
  %72 = load i32, ptr %17, align 4
  %73 = sext i32 %72 to i64
  %74 = getelementptr inbounds i32, ptr %71, i64 %73
  %75 = load i32, ptr %74, align 4
  %76 = load ptr, ptr %21, align 8
  %77 = load i32, ptr %20, align 4
  %78 = sext i32 %77 to i64
  %79 = getelementptr inbounds i32, ptr %76, i64 %78
  %80 = load i32, ptr %79, align 4
  %81 = load ptr, ptr %19, align 8
  %82 = load i32, ptr %20, align 4
  %83 = sext i32 %82 to i64
  %84 = getelementptr inbounds i32, ptr %81, i64 %83
  %85 = load i32, ptr %84, align 4
  %86 = call i32 @Gia_ManHashMux(ptr noundef %70, i32 noundef %75, i32 noundef %80, i32 noundef %85)
  %87 = load ptr, ptr %19, align 8
  %88 = load i32, ptr %20, align 4
  %89 = sext i32 %88 to i64
  %90 = getelementptr inbounds i32, ptr %87, i64 %89
  store i32 %86, ptr %90, align 4
  br label %91

91:                                               ; preds = %69
  %92 = load i32, ptr %20, align 4
  %93 = add nsw i32 %92, 1
  store i32 %93, ptr %20, align 4
  br label %65, !llvm.loop !50

94:                                               ; preds = %65
  br label %95

95:                                               ; preds = %94
  %96 = load i32, ptr %17, align 4
  %97 = add nsw i32 %96, 1
  store i32 %97, ptr %17, align 4
  br label %35, !llvm.loop !51

98:                                               ; preds = %35
  %99 = load ptr, ptr %16, align 8
  call void @Vec_IntFree(ptr noundef %99)
  %100 = load ptr, ptr %15, align 8
  call void @Vec_IntFree(ptr noundef %100)
  ret void
}