; Function Attrs: nounwind uwtable
define void @Cba_BlastPower(ptr noundef %0, ptr noundef readonly captures(none) %1, i32 noundef %2, ptr noundef readonly captures(none) %3, i32 noundef %4, ptr noundef captures(none) %5, ptr noundef captures(none) %6) local_unnamed_addr #0 {
  %8 = shl nsw i32 %2, 1
  %9 = tail call noalias dereferenceable_or_null(16) ptr @malloc(i64 noundef 16) #19
  %10 = add i32 %8, -1
  %or.cond.i = icmp ult i32 %10, 15
  %spec.store.select.i = select i1 %or.cond.i, i32 16, i32 %8
  %11 = getelementptr inbounds nuw i8, ptr %9, i64 4
  store i32 0, ptr %11, align 4
  store i32 %spec.store.select.i, ptr %9, align 8
  %.not.i = icmp eq i32 %spec.store.select.i, 0
  br i1 %.not.i, label %Vec_IntAlloc.exit, label %12

12:                                               ; preds = %7
  %13 = sext i32 %spec.store.select.i to i64
  %14 = shl nsw i64 %13, 2
  %15 = tail call noalias ptr @malloc(i64 noundef %14) #19
  br label %Vec_IntAlloc.exit

Vec_IntAlloc.exit:                                ; preds = %7, %12
  %16 = phi ptr [ %15, %12 ], [ null, %7 ]
  %17 = getelementptr inbounds nuw i8, ptr %9, i64 8
  store ptr %16, ptr %17, align 8
  %18 = tail call noalias dereferenceable_or_null(16) ptr @malloc(i64 noundef 16) #19
  %19 = getelementptr inbounds nuw i8, ptr %18, i64 4
  store i32 0, ptr %19, align 4
  store i32 %spec.store.select.i, ptr %18, align 8
  br i1 %.not.i, label %Vec_IntAlloc.exit49, label %20

20:                                               ; preds = %Vec_IntAlloc.exit
  %21 = sext i32 %spec.store.select.i to i64
  %22 = shl nsw i64 %21, 2
  %23 = tail call noalias ptr @malloc(i64 noundef %22) #19
  br label %Vec_IntAlloc.exit49

Vec_IntAlloc.exit49:                              ; preds = %Vec_IntAlloc.exit, %20
  %24 = phi ptr [ %23, %20 ], [ null, %Vec_IntAlloc.exit ]
  %25 = getelementptr inbounds nuw i8, ptr %18, i64 8
  store ptr %24, ptr %25, align 8
  %26 = getelementptr i8, ptr %6, i64 8
  %.val45 = load ptr, ptr %26, align 8
  %27 = load i32, ptr %6, align 8
  %.not.i.i = icmp slt i32 %27, %2
  br i1 %.not.i.i, label %28, label %Vec_IntGrow.exit.i

28:                                               ; preds = %Vec_IntAlloc.exit49
  %.not9.i.i = icmp eq ptr %.val45, null
  %29 = sext i32 %2 to i64
  %30 = shl nsw i64 %29, 2
  br i1 %.not9.i.i, label %33, label %31

31:                                               ; preds = %28
  %32 = tail call ptr @realloc(ptr noundef nonnull %.val45, i64 noundef %30) #18
  br label %35

33:                                               ; preds = %28
  %34 = tail call noalias ptr @malloc(i64 noundef %30) #19
  br label %35

35:                                               ; preds = %33, %31
  %36 = phi ptr [ %32, %31 ], [ %34, %33 ]
  store ptr %36, ptr %26, align 8
  store i32 %2, ptr %6, align 8
  br label %Vec_IntGrow.exit.i

Vec_IntGrow.exit.i:                               ; preds = %35, %Vec_IntAlloc.exit49
  %.val67 = phi ptr [ %36, %35 ], [ %.val45, %Vec_IntAlloc.exit49 ]
  %37 = icmp sgt i32 %2, 0
  br i1 %37, label %.lr.ph.i, label %Vec_IntFill.exit.thread

.lr.ph.i:                                         ; preds = %Vec_IntGrow.exit.i
  %wide.trip.count.i = zext nneg i32 %2 to i64
  br label %38

38:                                               ; preds = %38, %.lr.ph.i
  %indvars.iv.i = phi i64 [ 0, %.lr.ph.i ], [ %indvars.iv.next.i, %38 ]
  %39 = load ptr, ptr %26, align 8
  %40 = getelementptr inbounds nuw i32, ptr %39, i64 %indvars.iv.i
  store i32 0, ptr %40, align 4
  %indvars.iv.next.i = add nuw nsw i64 %indvars.iv.i, 1
  %exitcond.not.i = icmp eq i64 %indvars.iv.next.i, %wide.trip.count.i
  br i1 %exitcond.not.i, label %Vec_IntFill.exit, label %38, !llvm.loop !4

Vec_IntFill.exit:                                 ; preds = %38
  %.val.pre = load ptr, ptr %26, align 8
  %41 = getelementptr inbounds nuw i8, ptr %6, i64 4
  store i32 %2, ptr %41, align 4
  store i32 1, ptr %.val.pre, align 4
  %42 = icmp sgt i32 %4, 0
  br i1 %42, label %.lr.ph56.split.us.preheader, label %._crit_edge57

Vec_IntFill.exit.thread:                          ; preds = %Vec_IntGrow.exit.i
  %43 = getelementptr inbounds nuw i8, ptr %6, i64 4
  store i32 %2, ptr %43, align 4
  store i32 1, ptr %.val67, align 4
  %44 = icmp sgt i32 %4, 0
  br i1 %44, label %.lr.ph56.split, label %._crit_edge57

.lr.ph56.split.us.preheader:                      ; preds = %Vec_IntFill.exit
  %wide.trip.count64 = zext nneg i32 %4 to i64
  %wide.trip.count = zext nneg i32 %2 to i64
  br label %.lr.ph56.split.us

.lr.ph56.split.us:                                ; preds = %.lr.ph56.split.us.preheader, %._crit_edge.us
  %indvars.iv61 = phi i64 [ 0, %.lr.ph56.split.us.preheader ], [ %indvars.iv.next62, %._crit_edge.us ]
  %.04354.us = phi ptr [ null, %.lr.ph56.split.us.preheader ], [ %47, %._crit_edge.us ]
  %45 = icmp eq i64 %indvars.iv61, 0
  br i1 %45, label %.lr.ph.us, label %46

46:                                               ; preds = %.lr.ph56.split.us
  tail call void @Cba_BlastMultiplier2(ptr noundef %0, ptr noundef %.04354.us, ptr noundef %.04354.us, i32 noundef %2, ptr noundef %5, ptr noundef nonnull %18)
  br label %.lr.ph.us

.lr.ph.us:                                        ; preds = %.lr.ph56.split.us, %46
  %.sink = phi ptr [ %24, %46 ], [ %1, %.lr.ph56.split.us ]
  %47 = tail call ptr @Cba_VecCopy(ptr noundef nonnull %9, ptr noundef %.sink, i32 noundef %2)
  tail call void @Cba_BlastMultiplier2(ptr noundef %0, ptr noundef %.val45, ptr noundef %47, i32 noundef %2, ptr noundef %5, ptr noundef nonnull %18)
  %48 = getelementptr inbounds nuw i32, ptr %3, i64 %indvars.iv61
  br label %49

49:                                               ; preds = %.lr.ph.us, %49
  %indvars.iv = phi i64 [ 0, %.lr.ph.us ], [ %indvars.iv.next, %49 ]
  %50 = load i32, ptr %48, align 4
  %51 = getelementptr inbounds nuw i32, ptr %24, i64 %indvars.iv
  %52 = load i32, ptr %51, align 4
  %53 = getelementptr inbounds nuw i32, ptr %.val45, i64 %indvars.iv
  %54 = load i32, ptr %53, align 4
  %55 = tail call i32 @Gia_ManHashMux(ptr noundef %0, i32 noundef %50, i32 noundef %52, i32 noundef %54) #20
  store i32 %55, ptr %53, align 4
  %indvars.iv.next = add nuw nsw i64 %indvars.iv, 1
  %exitcond60.not = icmp eq i64 %indvars.iv.next, %wide.trip.count
  br i1 %exitcond60.not, label %._crit_edge.us, label %49, !llvm.loop !50

._crit_edge.us:                                   ; preds = %49
  %indvars.iv.next62 = add nuw nsw i64 %indvars.iv61, 1
  %exitcond65.not = icmp eq i64 %indvars.iv.next62, %wide.trip.count64
  br i1 %exitcond65.not, label %._crit_edge57, label %.lr.ph56.split.us, !llvm.loop !51

.lr.ph56.split:                                   ; preds = %Vec_IntFill.exit.thread, %58
  %.055 = phi i32 [ %60, %58 ], [ 0, %Vec_IntFill.exit.thread ]
  %.04354 = phi ptr [ %59, %58 ], [ null, %Vec_IntFill.exit.thread ]
  %56 = icmp eq i32 %.055, 0
  br i1 %56, label %58, label %57

57:                                               ; preds = %.lr.ph56.split
  tail call void @Cba_BlastMultiplier2(ptr noundef %0, ptr noundef %.04354, ptr noundef %.04354, i32 noundef %2, ptr noundef %5, ptr noundef nonnull %18)
  br label %58

58:                                               ; preds = %.lr.ph56.split, %57
  %.sink70 = phi ptr [ %24, %57 ], [ %1, %.lr.ph56.split ]
  %59 = tail call ptr @Cba_VecCopy(ptr noundef nonnull %9, ptr noundef %.sink70, i32 noundef %2)
  tail call void @Cba_BlastMultiplier2(ptr noundef %0, ptr noundef %.val45, ptr noundef %59, i32 noundef %2, ptr noundef %5, ptr noundef nonnull %18)
  %60 = add nuw nsw i32 %.055, 1
  %exitcond.not = icmp eq i32 %60, %4
  br i1 %exitcond.not, label %._crit_edge57, label %.lr.ph56.split, !llvm.loop !51

._crit_edge57:                                    ; preds = %58, %._crit_edge.us, %Vec_IntFill.exit.thread, %Vec_IntFill.exit
  %61 = load ptr, ptr %25, align 8
  %.not.i50 = icmp eq ptr %61, null
  br i1 %.not.i50, label %Vec_IntFree.exit, label %62

62:                                               ; preds = %._crit_edge57
  tail call void @free(ptr noundef nonnull %61) #20
  br label %Vec_IntFree.exit

Vec_IntFree.exit:                                 ; preds = %._crit_edge57, %62
  tail call void @free(ptr noundef nonnull %18) #20
  %63 = load ptr, ptr %17, align 8
  %.not.i51 = icmp eq ptr %63, null
  br i1 %.not.i51, label %Vec_IntFree.exit52, label %64

64:                                               ; preds = %Vec_IntFree.exit
  tail call void @free(ptr noundef nonnull %63) #20
  br label %Vec_IntFree.exit52

Vec_IntFree.exit52:                               ; preds = %Vec_IntFree.exit, %64
  tail call void @free(ptr noundef nonnull %9) #20
  ret void
}